; ModuleID = '56/666.c'
source_filename = "56/666.c"
target datalayout = "e-m:e-p270:32:32-p271:32:32-p272:64:64-i64:64-f80:128-n8:16:32:64-S128"
target triple = "x86_64-pc-linux-gnu"

@.str = private unnamed_addr constant [11 x i8] c"%c%c%c%c%c\00", align 1
@.str.1 = private unnamed_addr constant [12 x i8] c"%c%c%c%c%c\0A\00", align 1

; Function Attrs: noinline nounwind uwtable
define dso_local void @main() #0 {
  %1 = alloca i8, align 1
  %2 = alloca i8, align 1
  %3 = alloca i8, align 1
  %4 = alloca i8, align 1
  %5 = alloca i8, align 1
  %6 = call i32 (i8*, ...) @__isoc99_scanf(i8* getelementptr inbounds ([11 x i8], [11 x i8]* @.str, i64 0, i64 0), i8* %1, i8* %2, i8* %3, i8* %4, i8* %5)
  %7 = load i8, i8* %5, align 1
  %8 = sext i8 %7 to i32
  %9 = load i8, i8* %4, align 1
  %10 = sext i8 %9 to i32
  %11 = load i8, i8* %3, align 1
  %12 = sext i8 %11 to i32
  %13 = load i8, i8* %2, align 1
  %14 = sext i8 %13 to i32
  %15 = load i8, i8* %1, align 1
  %16 = sext i8 %15 to i32
  %17 = call i32 (i8*, ...) @printf(i8* getelementptr inbounds ([12 x i8], [12 x i8]* @.str.1, i64 0, i64 0), i32 %8, i32 %10, i32 %12, i32 %14, i32 %16)
  ret void
}

declare dso_local i32 @__isoc99_scanf(i8*, ...) #1

declare dso_local i32 @printf(i8*, ...) #1


!llvm.module.flags = !{!0}
!llvm.ident = !{!1}

!0 = !{i32 1, !"wchar_size", i32 4}
!1 = !{!"clang version 10.0.0-4ubuntu1 "}
